; Function Attrs: mustprogress uwtable
define internal void @_ZN12_GLOBAL__N_120SynthCoolrunner2Pass11clear_flagsEv(ptr noundef nonnull align 8 dereferenceable(250) %0) unnamed_addr #4 align 2 {
  %2 = getelementptr inbounds i8, ptr %0, i64 184
  %3 = tail call noundef nonnull align 8 dereferenceable(32) ptr @_ZNSt7__cxx1112basic_stringIcSt11char_traitsIcESaIcEEaSEPKc(ptr noundef nonnull align 8 dereferenceable(32) %2, ptr noundef nonnull @.str.22)
  %4 = getelementptr inbounds i8, ptr %0, i64 216
  %5 = tail call noundef nonnull align 8 dereferenceable(32) ptr @_ZNSt7__cxx1112basic_stringIcSt11char_traitsIcESaIcEEaSEPKc(ptr noundef nonnull align 8 dereferenceable(32) %4, ptr noundef nonnull @.str.23)
  %6 = getelementptr inbounds i8, ptr %0, i64 248
  store i8 1, ptr %6, align 8
  %7 = getelementptr inbounds i8, ptr %0, i64 249
  store i8 0, ptr %7, align 1
  ret void
}